target datalayout = "e-m:e-p270:32:32-p271:32:32-p272:64:64-i64:64-i128:128-f80:128-n8:16:32:64-S128"
target triple = "x86_64-unknown-linux-gnu"

%struct.OptsVisitor = type { %struct.Visitor, ptr, i32, ptr, i32, ptr, %union.anon, %union.anon, ptr }
%struct.Visitor = type { ptr, ptr, ptr, ptr, ptr, ptr, ptr, ptr, ptr, ptr, ptr, ptr, ptr, ptr, ptr, ptr, ptr, ptr, ptr, ptr, i32, %struct.CompatPolicy, ptr, ptr }
%struct.CompatPolicy = type { i8, i32, i8, i32, i8, i32, i8, i32 }
%union.anon = type { i64 }
%struct.QemuOpts = type { ptr, ptr, %struct.Location, %union.anon.0, %union.anon.1 }
%struct.Location = type { i32, i32, ptr, ptr }
%union.anon.0 = type { %struct.QTailQLink }
%struct.QTailQLink = type { ptr, ptr }
%union.anon.1 = type { %struct.QTailQLink }
%struct.QemuOpt = type { ptr, ptr, ptr, %union.anon.2, ptr, %union.anon.3 }
%union.anon.2 = type { i64 }
%union.anon.3 = type { %struct.QTailQLink }

@.str.1 = private unnamed_addr constant [28 x i8] c"../qemu/qapi/opts-visitor.c\00", align 1
@.str.2 = private unnamed_addr constant [3 x i8] c"id\00", align 1
@.str.3 = private unnamed_addr constant [29 x i8] c"strcmp(opt->name, \22id\22) != 0\00", align 1
@__PRETTY_FUNCTION__.opts_start_struct = private unnamed_addr constant [76 x i8] c"_Bool opts_start_struct(Visitor *, const char *, void **, size_t, Error **)\00", align 1

; Function Attrs: nounwind sspstrong uwtable
define internal void @opts_visitor_insert(ptr noundef %unprocessed_opts, ptr noundef %opt) #0 {
entry:
  %unprocessed_opts.addr = alloca ptr, align 8
  %opt.addr = alloca ptr, align 8
  %list = alloca ptr, align 8
  store ptr %unprocessed_opts, ptr %unprocessed_opts.addr, align 8
  store ptr %opt, ptr %opt.addr, align 8
  %0 = load ptr, ptr %unprocessed_opts.addr, align 8
  %1 = load ptr, ptr %opt.addr, align 8
  %name = getelementptr inbounds %struct.QemuOpt, ptr %1, i32 0, i32 0
  %2 = load ptr, ptr %name, align 8
  %call = call ptr @g_hash_table_lookup(ptr noundef %0, ptr noundef %2)
  store ptr %call, ptr %list, align 8
  %3 = load ptr, ptr %list, align 8
  %cmp = icmp eq ptr %3, null
  br i1 %cmp, label %if.then, label %if.end

if.then:                                          ; preds = %entry
  %call1 = call ptr @g_queue_new()
  store ptr %call1, ptr %list, align 8
  %4 = load ptr, ptr %unprocessed_opts.addr, align 8
  %5 = load ptr, ptr %opt.addr, align 8
  %name2 = getelementptr inbounds %struct.QemuOpt, ptr %5, i32 0, i32 0
  %6 = load ptr, ptr %name2, align 8
  %7 = load ptr, ptr %list, align 8
  %call3 = call i32 @g_hash_table_insert(ptr noundef %4, ptr noundef %6, ptr noundef %7)
  br label %if.end

if.end:                                           ; preds = %if.then, %entry
  %8 = load ptr, ptr %list, align 8
  %9 = load ptr, ptr %opt.addr, align 8
  call void @g_queue_push_tail(ptr noundef %8, ptr noundef %9)
  ret void
}

; Function Attrs: nounwind sspstrong uwtable
define internal ptr @to_ov(ptr noundef %v) #0 {
entry:
  %v.addr = alloca ptr, align 8
  %__mptr = alloca ptr, align 8
  %tmp = alloca ptr, align 8
  store ptr %v, ptr %v.addr, align 8
  %0 = load ptr, ptr %v.addr, align 8
  store ptr %0, ptr %__mptr, align 8
  %1 = load ptr, ptr %__mptr, align 8
  %add.ptr = getelementptr i8, ptr %1, i64 0
  store ptr %add.ptr, ptr %tmp, align 8
  %2 = load ptr, ptr %tmp, align 8
  ret ptr %2
}

; Function Attrs: nounwind sspstrong uwtable
define internal zeroext i1 @opts_start_struct(ptr noundef %v, ptr noundef %name, ptr noundef %obj, i64 noundef %size, ptr noundef %errp) #0 {
entry:
  %retval = alloca i1, align 1
  %v.addr = alloca ptr, align 8
  %name.addr = alloca ptr, align 8
  %obj.addr = alloca ptr, align 8
  %size.addr = alloca i64, align 8
  %errp.addr = alloca ptr, align 8
  %ov = alloca ptr, align 8
  %opt = alloca ptr, align 8
  store ptr %v, ptr %v.addr, align 8
  store ptr %name, ptr %name.addr, align 8
  store ptr %obj, ptr %obj.addr, align 8
  store i64 %size, ptr %size.addr, align 8
  store ptr %errp, ptr %errp.addr, align 8
  %0 = load ptr, ptr %v.addr, align 8
  %call = call ptr @to_ov(ptr noundef %0)
  store ptr %call, ptr %ov, align 8
  %1 = load ptr, ptr %obj.addr, align 8
  %tobool = icmp ne ptr %1, null
  br i1 %tobool, label %if.then, label %if.end

if.then:                                          ; preds = %entry
  %2 = load i64, ptr %size.addr, align 8
  %call1 = call noalias ptr @g_malloc0(i64 noundef %2) #8
  %3 = load ptr, ptr %obj.addr, align 8
  store ptr %call1, ptr %3, align 8
  br label %if.end

if.end:                                           ; preds = %if.then, %entry
  %4 = load ptr, ptr %ov, align 8
  %depth = getelementptr inbounds %struct.OptsVisitor, ptr %4, i32 0, i32 2
  %5 = load i32, ptr %depth, align 8
  %inc = add i32 %5, 1
  store i32 %inc, ptr %depth, align 8
  %cmp = icmp ugt i32 %5, 0
  br i1 %cmp, label %if.then2, label %if.end3

if.then2:                                         ; preds = %if.end
  store i1 true, ptr %retval, align 1
  br label %return

if.end3:                                          ; preds = %if.end
  %call4 = call ptr @g_hash_table_new_full(ptr noundef @g_str_hash, ptr noundef @g_str_equal, ptr noundef null, ptr noundef @destroy_list)
  %6 = load ptr, ptr %ov, align 8
  %unprocessed_opts = getelementptr inbounds %struct.OptsVisitor, ptr %6, i32 0, i32 3
  store ptr %call4, ptr %unprocessed_opts, align 8
  %7 = load ptr, ptr %ov, align 8
  %opts_root = getelementptr inbounds %struct.OptsVisitor, ptr %7, i32 0, i32 1
  %8 = load ptr, ptr %opts_root, align 8
  %head = getelementptr inbounds %struct.QemuOpts, ptr %8, i32 0, i32 3
  %9 = load ptr, ptr %head, align 8
  store ptr %9, ptr %opt, align 8
  br label %for.cond

for.cond:                                         ; preds = %for.inc, %if.end3
  %10 = load ptr, ptr %opt, align 8
  %tobool5 = icmp ne ptr %10, null
  br i1 %tobool5, label %for.body, label %for.end

for.body:                                         ; preds = %for.cond
  %11 = load ptr, ptr %opt, align 8
  %name6 = getelementptr inbounds %struct.QemuOpt, ptr %11, i32 0, i32 0
  %12 = load ptr, ptr %name6, align 8
  %call7 = call i32 @strcmp(ptr noundef %12, ptr noundef @.str.2) #9
  %cmp8 = icmp ne i32 %call7, 0
  br i1 %cmp8, label %if.then9, label %if.else

if.then9:                                         ; preds = %for.body
  br label %if.end10

if.else:                                          ; preds = %for.body
  call void @__assert_fail(ptr noundef @.str.3, ptr noundef @.str.1, i32 noundef 154, ptr noundef @__PRETTY_FUNCTION__.opts_start_struct) #7
  unreachable

if.end10:                                         ; preds = %if.then9
  %13 = load ptr, ptr %ov, align 8
  %unprocessed_opts11 = getelementptr inbounds %struct.OptsVisitor, ptr %13, i32 0, i32 3
  %14 = load ptr, ptr %unprocessed_opts11, align 8
  %15 = load ptr, ptr %opt, align 8
  call void @opts_visitor_insert(ptr noundef %14, ptr noundef %15)
  br label %for.inc

for.inc:                                          ; preds = %if.end10
  %16 = load ptr, ptr %opt, align 8
  %next = getelementptr inbounds %struct.QemuOpt, ptr %16, i32 0, i32 5
  %17 = load ptr, ptr %next, align 8
  store ptr %17, ptr %opt, align 8
  br label %for.cond, !llvm.loop !5

for.end:                                          ; preds = %for.cond
  %18 = load ptr, ptr %ov, align 8
  %opts_root12 = getelementptr inbounds %struct.OptsVisitor, ptr %18, i32 0, i32 1
  %19 = load ptr, ptr %opts_root12, align 8
  %id = getelementptr inbounds %struct.QemuOpts, ptr %19, i32 0, i32 0
  %20 = load ptr, ptr %id, align 8
  %cmp13 = icmp ne ptr %20, null
  br i1 %cmp13, label %if.then14, label %if.end25

if.then14:                                        ; preds = %for.end
  %call15 = call noalias ptr @g_malloc0(i64 noundef 56) #8
  %21 = load ptr, ptr %ov, align 8
  %fake_id_opt = getelementptr inbounds %struct.OptsVisitor, ptr %21, i32 0, i32 8
  store ptr %call15, ptr %fake_id_opt, align 8
  %call16 = call noalias ptr @g_strdup(ptr noundef @.str.2)
  %22 = load ptr, ptr %ov, align 8
  %fake_id_opt17 = getelementptr inbounds %struct.OptsVisitor, ptr %22, i32 0, i32 8
  %23 = load ptr, ptr %fake_id_opt17, align 8
  %name18 = getelementptr inbounds %struct.QemuOpt, ptr %23, i32 0, i32 0
  store ptr %call16, ptr %name18, align 8
  %24 = load ptr, ptr %ov, align 8
  %opts_root19 = getelementptr inbounds %struct.OptsVisitor, ptr %24, i32 0, i32 1
  %25 = load ptr, ptr %opts_root19, align 8
  %id20 = getelementptr inbounds %struct.QemuOpts, ptr %25, i32 0, i32 0
  %26 = load ptr, ptr %id20, align 8
  %call21 = call noalias ptr @g_strdup(ptr noundef %26)
  %27 = load ptr, ptr %ov, align 8
  %fake_id_opt22 = getelementptr inbounds %struct.OptsVisitor, ptr %27, i32 0, i32 8
  %28 = load ptr, ptr %fake_id_opt22, align 8
  %str = getelementptr inbounds %struct.QemuOpt, ptr %28, i32 0, i32 1
  store ptr %call21, ptr %str, align 8
  %29 = load ptr, ptr %ov, align 8
  %unprocessed_opts23 = getelementptr inbounds %struct.OptsVisitor, ptr %29, i32 0, i32 3
  %30 = load ptr, ptr %unprocessed_opts23, align 8
  %31 = load ptr, ptr %ov, align 8
  %fake_id_opt24 = getelementptr inbounds %struct.OptsVisitor, ptr %31, i32 0, i32 8
  %32 = load ptr, ptr %fake_id_opt24, align 8
  call void @opts_visitor_insert(ptr noundef %30, ptr noundef %32)
  br label %if.end25

if.end25:                                         ; preds = %if.then14, %for.end
  store i1 true, ptr %retval, align 1
  br label %return

return:                                           ; preds = %if.end25, %if.then2
  %33 = load i1, ptr %retval, align 1
  ret i1 %33
}