; Function Attrs: nounwind sspstrong uwtable
define internal noundef zeroext i1 @opts_start_struct(ptr noundef captures(none) %v, ptr readnone captures(none) %name, ptr noundef writeonly %obj, i64 noundef %size, ptr readnone captures(none) %errp) #0 {
entry:
  %tobool.not = icmp eq ptr %obj, null
  br i1 %tobool.not, label %if.end, label %if.then

if.then:                                          ; preds = %entry
  %call1 = tail call noalias ptr @g_malloc0(i64 noundef %size) #9
  store ptr %call1, ptr %obj, align 8
  br label %if.end

if.end:                                           ; preds = %if.then, %entry
  %depth = getelementptr inbounds nuw i8, ptr %v, i64 224
  %0 = load i32, ptr %depth, align 8
  %inc = add i32 %0, 1
  store i32 %inc, ptr %depth, align 8
  %cmp.not = icmp eq i32 %0, 0
  br i1 %cmp.not, label %if.end3, label %return

if.end3:                                          ; preds = %if.end
  %call4 = tail call ptr @g_hash_table_new_full(ptr noundef nonnull @g_str_hash, ptr noundef nonnull @g_str_equal, ptr noundef null, ptr noundef nonnull @destroy_list) #10
  %unprocessed_opts = getelementptr inbounds nuw i8, ptr %v, i64 232
  store ptr %call4, ptr %unprocessed_opts, align 8
  %opts_root = getelementptr inbounds nuw i8, ptr %v, i64 216
  %1 = load ptr, ptr %opts_root, align 8
  %opt.0.in22 = getelementptr inbounds nuw i8, ptr %1, i64 40
  %opt.023 = load ptr, ptr %opt.0.in22, align 8
  %tobool5.not24 = icmp eq ptr %opt.023, null
  br i1 %tobool5.not24, label %for.end, label %for.body

for.body:                                         ; preds = %if.end3, %opts_visitor_insert.exit
  %opt.025 = phi ptr [ %opt.0, %opts_visitor_insert.exit ], [ %opt.023, %if.end3 ]
  %2 = load ptr, ptr %opt.025, align 8
  %3 = load i8, ptr %2, align 1
  %.not = icmp eq i8 %3, 105
  br i1 %.not, label %sub_1, label %if.end10

sub_1:                                            ; preds = %for.body
  %4 = getelementptr inbounds nuw i8, ptr %2, i64 1
  %5 = load i8, ptr %4, align 1
  %.not26 = icmp eq i8 %5, 100
  br i1 %.not26, label %for.body.tail, label %if.end10

for.body.tail:                                    ; preds = %sub_1
  %6 = getelementptr inbounds nuw i8, ptr %2, i64 2
  %7 = load i8, ptr %6, align 1
  %8 = icmp eq i8 %7, 0
  br i1 %8, label %if.else, label %if.end10

if.else:                                          ; preds = %for.body.tail
  tail call void @__assert_fail(ptr noundef nonnull @.str.3, ptr noundef nonnull @.str.1, i32 noundef 154, ptr noundef nonnull @__PRETTY_FUNCTION__.opts_start_struct) #8
  unreachable

if.end10:                                         ; preds = %sub_1, %for.body, %for.body.tail
  %9 = load ptr, ptr %unprocessed_opts, align 8
  %call.i = tail call ptr @g_hash_table_lookup(ptr noundef %9, ptr noundef nonnull %2) #10
  %cmp.i = icmp eq ptr %call.i, null
  br i1 %cmp.i, label %if.then.i, label %opts_visitor_insert.exit

if.then.i:                                        ; preds = %if.end10
  %call1.i = tail call ptr @g_queue_new() #10
  %10 = load ptr, ptr %opt.025, align 8
  %call3.i = tail call i32 @g_hash_table_insert(ptr noundef %9, ptr noundef %10, ptr noundef %call1.i) #10
  br label %opts_visitor_insert.exit

opts_visitor_insert.exit:                         ; preds = %if.end10, %if.then.i
  %list.0.i = phi ptr [ %call1.i, %if.then.i ], [ %call.i, %if.end10 ]
  tail call void @g_queue_push_tail(ptr noundef %list.0.i, ptr noundef nonnull %opt.025) #10
  %opt.0.in = getelementptr inbounds nuw i8, ptr %opt.025, i64 40
  %opt.0 = load ptr, ptr %opt.0.in, align 8
  %tobool5.not = icmp eq ptr %opt.0, null
  br i1 %tobool5.not, label %for.end.loopexit, label %for.body, !llvm.loop !5

for.end.loopexit:                                 ; preds = %opts_visitor_insert.exit
  %.pre = load ptr, ptr %opts_root, align 8
  br label %for.end

for.end:                                          ; preds = %for.end.loopexit, %if.end3
  %11 = phi ptr [ %.pre, %for.end.loopexit ], [ %1, %if.end3 ]
  %12 = load ptr, ptr %11, align 8
  %cmp13.not = icmp eq ptr %12, null
  br i1 %cmp13.not, label %return, label %if.then14

if.then14:                                        ; preds = %for.end
  %call15 = tail call noalias dereferenceable_or_null(56) ptr @g_malloc0(i64 noundef 56) #9
  %fake_id_opt = getelementptr inbounds nuw i8, ptr %v, i64 272
  store ptr %call15, ptr %fake_id_opt, align 8
  %call16 = tail call noalias ptr @g_strdup(ptr noundef nonnull @.str.2) #10
  %13 = load ptr, ptr %fake_id_opt, align 8
  store ptr %call16, ptr %13, align 8
  %14 = load ptr, ptr %opts_root, align 8
  %15 = load ptr, ptr %14, align 8
  %call21 = tail call noalias ptr @g_strdup(ptr noundef %15) #10
  %16 = load ptr, ptr %fake_id_opt, align 8
  %str = getelementptr inbounds nuw i8, ptr %16, i64 8
  store ptr %call21, ptr %str, align 8
  %17 = load ptr, ptr %unprocessed_opts, align 8
  %18 = load ptr, ptr %fake_id_opt, align 8
  %19 = load ptr, ptr %18, align 8
  %call.i15 = tail call ptr @g_hash_table_lookup(ptr noundef %17, ptr noundef %19) #10
  %cmp.i16 = icmp eq ptr %call.i15, null
  br i1 %cmp.i16, label %if.then.i18, label %opts_visitor_insert.exit21

if.then.i18:                                      ; preds = %if.then14
  %call1.i19 = tail call ptr @g_queue_new() #10
  %20 = load ptr, ptr %18, align 8
  %call3.i20 = tail call i32 @g_hash_table_insert(ptr noundef %17, ptr noundef %20, ptr noundef %call1.i19) #10
  br label %opts_visitor_insert.exit21

opts_visitor_insert.exit21:                       ; preds = %if.then14, %if.then.i18
  %list.0.i17 = phi ptr [ %call1.i19, %if.then.i18 ], [ %call.i15, %if.then14 ]
  tail call void @g_queue_push_tail(ptr noundef %list.0.i17, ptr noundef nonnull %18) #10
  br label %return

return:                                           ; preds = %for.end, %opts_visitor_insert.exit21, %if.end
  ret i1 true
}